target datalayout = "e-m:e-p270:32:32-p271:32:32-p272:64:64-i64:64-i128:128-f80:128-n8:16:32:64-S128"
target triple = "x86_64-pc-linux-gnu"

%struct.FT_Vector_ = type { i64, i64 }
%struct.FT_StrokerRec_ = type { i64, i64, %struct.FT_Vector_, i64, i8, i8, i64, %struct.FT_Vector_, i64, i8, i32, i32, i32, i64, i64, [2 x %struct.FT_StrokeBorderRec_], ptr }
%struct.FT_StrokeBorderRec_ = type { i32, i32, ptr, ptr, i8, i32, ptr, i8 }

; Function Attrs: nounwind uwtable
define i32 @FT_Stroker_LineTo(ptr noundef %0, ptr noundef %1) #0 {
  %3 = alloca i32, align 4
  %4 = alloca ptr, align 8
  %5 = alloca ptr, align 8
  %6 = alloca i32, align 4
  %7 = alloca ptr, align 8
  %8 = alloca %struct.FT_Vector_, align 8
  %9 = alloca i64, align 8
  %10 = alloca i32, align 4
  %11 = alloca i64, align 8
  %12 = alloca %struct.FT_Vector_, align 8
  store ptr %0, ptr %4, align 8
  store ptr %1, ptr %5, align 8
  store i32 0, ptr %6, align 4
  %13 = load ptr, ptr %4, align 8
  %14 = icmp ne ptr %13, null
  br i1 %14, label %15, label %18

15:                                               ; preds = %2
  %16 = load ptr, ptr %5, align 8
  %17 = icmp ne ptr %16, null
  br i1 %17, label %19, label %18

18:                                               ; preds = %15, %2
  store i32 6, ptr %3, align 4
  br label %135

19:                                               ; preds = %15
  %20 = load ptr, ptr %5, align 8
  %21 = getelementptr inbounds %struct.FT_Vector_, ptr %20, i32 0, i32 0
  %22 = load i64, ptr %21, align 8
  %23 = load ptr, ptr %4, align 8
  %24 = getelementptr inbounds %struct.FT_StrokerRec_, ptr %23, i32 0, i32 2
  %25 = getelementptr inbounds %struct.FT_Vector_, ptr %24, i32 0, i32 0
  %26 = load i64, ptr %25, align 8
  %27 = sub nsw i64 %22, %26
  %28 = getelementptr inbounds %struct.FT_Vector_, ptr %8, i32 0, i32 0
  store i64 %27, ptr %28, align 8
  %29 = load ptr, ptr %5, align 8
  %30 = getelementptr inbounds %struct.FT_Vector_, ptr %29, i32 0, i32 1
  %31 = load i64, ptr %30, align 8
  %32 = load ptr, ptr %4, align 8
  %33 = getelementptr inbounds %struct.FT_StrokerRec_, ptr %32, i32 0, i32 2
  %34 = getelementptr inbounds %struct.FT_Vector_, ptr %33, i32 0, i32 1
  %35 = load i64, ptr %34, align 8
  %36 = sub nsw i64 %31, %35
  %37 = getelementptr inbounds %struct.FT_Vector_, ptr %8, i32 0, i32 1
  store i64 %36, ptr %37, align 8
  %38 = getelementptr inbounds %struct.FT_Vector_, ptr %8, i32 0, i32 0
  %39 = load i64, ptr %38, align 8
  %40 = icmp eq i64 %39, 0
  br i1 %40, label %41, label %46

41:                                               ; preds = %19
  %42 = getelementptr inbounds %struct.FT_Vector_, ptr %8, i32 0, i32 1
  %43 = load i64, ptr %42, align 8
  %44 = icmp eq i64 %43, 0
  br i1 %44, label %45, label %46

45:                                               ; preds = %41
  br label %133

46:                                               ; preds = %41, %19
  %47 = call i64 @FT_Vector_Length(ptr noundef %8)
  store i64 %47, ptr %11, align 8
  %48 = getelementptr inbounds %struct.FT_Vector_, ptr %8, i32 0, i32 0
  %49 = load i64, ptr %48, align 8
  %50 = getelementptr inbounds %struct.FT_Vector_, ptr %8, i32 0, i32 1
  %51 = load i64, ptr %50, align 8
  %52 = call i64 @FT_Atan2(i64 noundef %49, i64 noundef %51)
  store i64 %52, ptr %9, align 8
  %53 = load ptr, ptr %4, align 8
  %54 = getelementptr inbounds %struct.FT_StrokerRec_, ptr %53, i32 0, i32 14
  %55 = load i64, ptr %54, align 8
  %56 = load i64, ptr %9, align 8
  %57 = add nsw i64 %56, 5898240
  call void @FT_Vector_From_Polar(ptr noundef %8, i64 noundef %55, i64 noundef %57)
  %58 = load ptr, ptr %4, align 8
  %59 = getelementptr inbounds %struct.FT_StrokerRec_, ptr %58, i32 0, i32 4
  %60 = load i8, ptr %59, align 8
  %61 = icmp ne i8 %60, 0
  br i1 %61, label %62, label %71

62:                                               ; preds = %46
  %63 = load ptr, ptr %4, align 8
  %64 = load i64, ptr %9, align 8
  %65 = load i64, ptr %11, align 8
  %66 = call i32 @ft_stroker_subpath_start(ptr noundef %63, i64 noundef %64, i64 noundef %65)
  store i32 %66, ptr %6, align 4
  %67 = load i32, ptr %6, align 4
  %68 = icmp ne i32 %67, 0
  br i1 %68, label %69, label %70

69:                                               ; preds = %62
  br label %133

70:                                               ; preds = %62
  br label %82

71:                                               ; preds = %46
  %72 = load i64, ptr %9, align 8
  %73 = load ptr, ptr %4, align 8
  %74 = getelementptr inbounds %struct.FT_StrokerRec_, ptr %73, i32 0, i32 1
  store i64 %72, ptr %74, align 8
  %75 = load ptr, ptr %4, align 8
  %76 = load i64, ptr %11, align 8
  %77 = call i32 @ft_stroker_process_corner(ptr noundef %75, i64 noundef %76)
  store i32 %77, ptr %6, align 4
  %78 = load i32, ptr %6, align 4
  %79 = icmp ne i32 %78, 0
  br i1 %79, label %80, label %81

80:                                               ; preds = %71
  br label %133

81:                                               ; preds = %71
  br label %82

82:                                               ; preds = %81, %70
  %83 = load ptr, ptr %4, align 8
  %84 = getelementptr inbounds %struct.FT_StrokerRec_, ptr %83, i32 0, i32 15
  %85 = getelementptr inbounds [2 x %struct.FT_StrokeBorderRec_], ptr %84, i64 0, i64 0
  store ptr %85, ptr %7, align 8
  store i32 1, ptr %10, align 4
  br label %86

86:                                               ; preds = %118, %82
  %87 = load i32, ptr %10, align 4
  %88 = icmp sge i32 %87, 0
  br i1 %88, label %89, label %123

89:                                               ; preds = %86
  %90 = load ptr, ptr %5, align 8
  %91 = getelementptr inbounds %struct.FT_Vector_, ptr %90, i32 0, i32 0
  %92 = load i64, ptr %91, align 8
  %93 = getelementptr inbounds %struct.FT_Vector_, ptr %8, i32 0, i32 0
  %94 = load i64, ptr %93, align 8
  %95 = add nsw i64 %92, %94
  %96 = getelementptr inbounds %struct.FT_Vector_, ptr %12, i32 0, i32 0
  store i64 %95, ptr %96, align 8
  %97 = load ptr, ptr %5, align 8
  %98 = getelementptr inbounds %struct.FT_Vector_, ptr %97, i32 0, i32 1
  %99 = load i64, ptr %98, align 8
  %100 = getelementptr inbounds %struct.FT_Vector_, ptr %8, i32 0, i32 1
  %101 = load i64, ptr %100, align 8
  %102 = add nsw i64 %99, %101
  %103 = getelementptr inbounds %struct.FT_Vector_, ptr %12, i32 0, i32 1
  store i64 %102, ptr %103, align 8
  %104 = load ptr, ptr %7, align 8
  %105 = call i32 @ft_stroke_border_lineto(ptr noundef %104, ptr noundef %12, i8 noundef zeroext 1)
  store i32 %105, ptr %6, align 4
  %106 = load i32, ptr %6, align 4
  %107 = icmp ne i32 %106, 0
  br i1 %107, label %108, label %109

108:                                              ; preds = %89
  br label %133

109:                                              ; preds = %89
  %110 = getelementptr inbounds %struct.FT_Vector_, ptr %8, i32 0, i32 0
  %111 = load i64, ptr %110, align 8
  %112 = sub nsw i64 0, %111
  %113 = getelementptr inbounds %struct.FT_Vector_, ptr %8, i32 0, i32 0
  store i64 %112, ptr %113, align 8
  %114 = getelementptr inbounds %struct.FT_Vector_, ptr %8, i32 0, i32 1
  %115 = load i64, ptr %114, align 8
  %116 = sub nsw i64 0, %115
  %117 = getelementptr inbounds %struct.FT_Vector_, ptr %8, i32 0, i32 1
  store i64 %116, ptr %117, align 8
  br label %118

118:                                              ; preds = %109
  %119 = load i32, ptr %10, align 4
  %120 = add nsw i32 %119, -1
  store i32 %120, ptr %10, align 4
  %121 = load ptr, ptr %7, align 8
  %122 = getelementptr inbounds %struct.FT_StrokeBorderRec_, ptr %121, i32 1
  store ptr %122, ptr %7, align 8
  br label %86, !llvm.loop !4

123:                                              ; preds = %86
  %124 = load i64, ptr %9, align 8
  %125 = load ptr, ptr %4, align 8
  %126 = getelementptr inbounds %struct.FT_StrokerRec_, ptr %125, i32 0, i32 0
  store i64 %124, ptr %126, align 8
  %127 = load ptr, ptr %4, align 8
  %128 = getelementptr inbounds %struct.FT_StrokerRec_, ptr %127, i32 0, i32 2
  %129 = load ptr, ptr %5, align 8
  call void @llvm.memcpy.p0.p0.i64(ptr align 8 %128, ptr align 8 %129, i64 16, i1 false)
  %130 = load i64, ptr %11, align 8
  %131 = load ptr, ptr %4, align 8
  %132 = getelementptr inbounds %struct.FT_StrokerRec_, ptr %131, i32 0, i32 3
  store i64 %130, ptr %132, align 8
  br label %133

133:                                              ; preds = %123, %108, %80, %69, %45
  %134 = load i32, ptr %6, align 4
  store i32 %134, ptr %3, align 4
  br label %135

135:                                              ; preds = %133, %18
  %136 = load i32, ptr %3, align 4
  ret i32 %136
}