; Function Attrs: nounwind uwtable
define i32 @FT_Stroker_LineTo(ptr noundef %0, ptr noundef readonly %1) local_unnamed_addr #0 {
  %3 = alloca %struct.FT_Vector_, align 8
  %4 = alloca %struct.FT_Vector_, align 8
  %5 = icmp ne ptr %0, null
  %6 = icmp ne ptr %1, null
  %or.cond = and i1 %5, %6
  br i1 %or.cond, label %7, label %.loopexit

7:                                                ; preds = %2
  %8 = load i64, ptr %1, align 8
  %9 = getelementptr inbounds nuw i8, ptr %0, i64 16
  %10 = load i64, ptr %9, align 8
  %11 = sub nsw i64 %8, %10
  store i64 %11, ptr %3, align 8
  %12 = getelementptr inbounds nuw i8, ptr %1, i64 8
  %13 = load i64, ptr %12, align 8
  %14 = getelementptr inbounds nuw i8, ptr %0, i64 24
  %15 = load i64, ptr %14, align 8
  %16 = sub nsw i64 %13, %15
  %17 = getelementptr inbounds nuw i8, ptr %3, i64 8
  store i64 %16, ptr %17, align 8
  %18 = icmp eq i64 %8, %10
  %19 = icmp eq i64 %13, %15
  %or.cond4 = select i1 %18, i1 %19, i1 false
  br i1 %or.cond4, label %.loopexit, label %20

20:                                               ; preds = %7
  %21 = call i64 @FT_Vector_Length(ptr noundef nonnull %3) #11
  %22 = load i64, ptr %3, align 8
  %23 = load i64, ptr %17, align 8
  %24 = call i64 @FT_Atan2(i64 noundef %22, i64 noundef %23) #11
  %25 = getelementptr inbounds nuw i8, ptr %0, i64 104
  %26 = load i64, ptr %25, align 8
  %27 = add nsw i64 %24, 5898240
  call void @FT_Vector_From_Polar(ptr noundef nonnull %3, i64 noundef %26, i64 noundef %27) #11
  %28 = getelementptr inbounds nuw i8, ptr %0, i64 40
  %29 = load i8, ptr %28, align 8
  %.not = icmp eq i8 %29, 0
  br i1 %.not, label %32, label %30

30:                                               ; preds = %20
  %31 = call fastcc i32 @ft_stroker_subpath_start(ptr noundef %0, i64 noundef %24, i64 noundef %21)
  %.not49 = icmp eq i32 %31, 0
  br i1 %.not49, label %35, label %.loopexit

32:                                               ; preds = %20
  %33 = getelementptr inbounds nuw i8, ptr %0, i64 8
  store i64 %24, ptr %33, align 8
  %34 = call fastcc i32 @ft_stroker_process_corner(ptr noundef %0, i64 noundef %21)
  %.not48 = icmp eq i32 %34, 0
  br i1 %.not48, label %35, label %.loopexit

35:                                               ; preds = %32, %30
  %36 = getelementptr inbounds nuw i8, ptr %0, i64 112
  %37 = getelementptr inbounds nuw i8, ptr %4, i64 8
  %.pre = load i64, ptr %3, align 8
  %.pre54 = load i64, ptr %17, align 8
  br label %38

38:                                               ; preds = %35, %46
  %39 = phi i64 [ %.pre54, %35 ], [ %50, %46 ]
  %40 = phi i64 [ %.pre, %35 ], [ %48, %46 ]
  %.03752 = phi i32 [ 1, %35 ], [ %51, %46 ]
  %.03951 = phi ptr [ %36, %35 ], [ %52, %46 ]
  %41 = load i64, ptr %1, align 8
  %42 = add nsw i64 %40, %41
  store i64 %42, ptr %4, align 8
  %43 = load i64, ptr %12, align 8
  %44 = add nsw i64 %39, %43
  store i64 %44, ptr %37, align 8
  %45 = call fastcc i32 @ft_stroke_border_lineto(ptr noundef %.03951, ptr noundef %4, i8 noundef zeroext 1)
  %.not50 = icmp eq i32 %45, 0
  br i1 %.not50, label %46, label %.loopexit

46:                                               ; preds = %38
  %47 = load i64, ptr %3, align 8
  %48 = sub nsw i64 0, %47
  store i64 %48, ptr %3, align 8
  %49 = load i64, ptr %17, align 8
  %50 = sub nsw i64 0, %49
  store i64 %50, ptr %17, align 8
  %51 = add nsw i32 %.03752, -1
  %52 = getelementptr inbounds nuw i8, ptr %.03951, i64 48
  %.not55 = icmp eq i32 %.03752, 0
  br i1 %.not55, label %53, label %38, !llvm.loop !4

53:                                               ; preds = %46
  store i64 %24, ptr %0, align 8
  call void @llvm.memcpy.p0.p0.i64(ptr noundef nonnull align 8 dereferenceable(16) %9, ptr noundef nonnull align 8 dereferenceable(16) %1, i64 16, i1 false)
  %54 = getelementptr inbounds nuw i8, ptr %0, i64 32
  store i64 %21, ptr %54, align 8
  br label %.loopexit

.loopexit:                                        ; preds = %38, %53, %7, %30, %32, %2
  %.0 = phi i32 [ 6, %2 ], [ 0, %7 ], [ %31, %30 ], [ 0, %53 ], [ %34, %32 ], [ %45, %38 ]
  ret i32 %.0
}